; Function Attrs: nofree nosync nounwind memory(read, argmem: readwrite, inaccessiblemem: none) uwtable
define internal fastcc void @compute_postnum_recursive(ptr nocapture noundef %0, ptr nocapture noundef %1, ptr nocapture noundef readonly %2, i32 noundef %3) unnamed_addr #4 {
  %5 = getelementptr inbounds i8, ptr %2, i64 8
  %6 = load ptr, ptr %5, align 8
  %7 = sext i32 %3 to i64
  %8 = getelementptr inbounds %struct._zend_basic_block, ptr %6, i64 %7
  %9 = getelementptr inbounds i32, ptr %0, i64 %7
  %10 = load i32, ptr %9, align 4
  %.not = icmp eq i32 %10, -1
  br i1 %.not, label %11, label %23

11:                                               ; preds = %4
  store i32 -2, ptr %9, align 4
  %12 = getelementptr inbounds i8, ptr %8, i64 20
  %13 = load i32, ptr %12, align 4
  %14 = icmp sgt i32 %13, 0
  br i1 %14, label %.lr.ph, label %._crit_edge

.lr.ph:                                           ; preds = %11, %.lr.ph
  %indvars.iv = phi i64 [ %indvars.iv.next, %.lr.ph ], [ 0, %11 ]
  %15 = load ptr, ptr %8, align 8
  %16 = getelementptr inbounds i32, ptr %15, i64 %indvars.iv
  %17 = load i32, ptr %16, align 4
  tail call fastcc void @compute_postnum_recursive(ptr noundef %0, ptr noundef %1, ptr noundef %2, i32 noundef %17)
  %indvars.iv.next = add nuw nsw i64 %indvars.iv, 1
  %18 = load i32, ptr %12, align 4
  %19 = sext i32 %18 to i64
  %20 = icmp slt i64 %indvars.iv.next, %19
  br i1 %20, label %.lr.ph, label %._crit_edge

._crit_edge:                                      ; preds = %.lr.ph, %11
  %21 = load i32, ptr %1, align 4
  %22 = add nsw i32 %21, 1
  store i32 %22, ptr %1, align 4
  store i32 %21, ptr %9, align 4
  br label %23

23:                                               ; preds = %4, %._crit_edge
  ret void
}